target datalayout = "e-m:e-p270:32:32-p271:32:32-p272:64:64-i64:64-i128:128-f80:128-n8:16:32:64-S128"
target triple = "x86_64-pc-linux-gnu"

%struct._zend_stack = type { i32, i32, i32, ptr }
%struct._zend_php_scanner_globals = type { ptr, ptr, i32, ptr, ptr, ptr, ptr, ptr, i32, %struct._zend_stack, %struct._zend_ptr_stack, %struct._zend_stack, i8, i32, i8, ptr, i64, ptr, i64, ptr, ptr, ptr, i32, ptr, ptr }
%struct._zend_ptr_stack = type { i32, i32, ptr, ptr, i8 }

@language_scanner_globals = global %struct._zend_php_scanner_globals zeroinitializer, align 8
@.str.2 = private unnamed_addr constant [86 x i8] c"Could not convert the script from the detected encoding \22%s\22 to a compatible encoding\00", align 1

; Function Attrs: nounwind uwtable
define void @zend_multibyte_yyinput_again(ptr noundef %0, ptr noundef %1) #0 {
  %3 = alloca ptr, align 8
  %4 = alloca ptr, align 8
  %5 = alloca i64, align 8
  %6 = alloca ptr, align 8
  store ptr %0, ptr %3, align 8
  store ptr %1, ptr %4, align 8
  %7 = load ptr, ptr getelementptr inbounds (%struct._zend_php_scanner_globals, ptr @language_scanner_globals, i32 0, i32 19), align 8
  %8 = icmp ne ptr %7, null
  br i1 %8, label %17, label %9

9:                                                ; preds = %2
  %10 = load ptr, ptr getelementptr inbounds (%struct._zend_php_scanner_globals, ptr @language_scanner_globals, i32 0, i32 17), align 8
  %11 = icmp ne ptr %10, null
  br i1 %11, label %12, label %14

12:                                               ; preds = %9
  %13 = load ptr, ptr getelementptr inbounds (%struct._zend_php_scanner_globals, ptr @language_scanner_globals, i32 0, i32 17), align 8
  call void @_efree(ptr noundef %13)
  store ptr null, ptr getelementptr inbounds (%struct._zend_php_scanner_globals, ptr @language_scanner_globals, i32 0, i32 17), align 8
  br label %14

14:                                               ; preds = %12, %9
  store i64 0, ptr getelementptr inbounds (%struct._zend_php_scanner_globals, ptr @language_scanner_globals, i32 0, i32 18), align 8
  %15 = load i64, ptr getelementptr inbounds (%struct._zend_php_scanner_globals, ptr @language_scanner_globals, i32 0, i32 16), align 8
  store i64 %15, ptr %5, align 8
  %16 = load ptr, ptr getelementptr inbounds (%struct._zend_php_scanner_globals, ptr @language_scanner_globals, i32 0, i32 15), align 8
  store ptr %16, ptr %6, align 8
  br label %34

17:                                               ; preds = %2
  %18 = load ptr, ptr getelementptr inbounds (%struct._zend_php_scanner_globals, ptr @language_scanner_globals, i32 0, i32 19), align 8
  %19 = load ptr, ptr getelementptr inbounds (%struct._zend_php_scanner_globals, ptr @language_scanner_globals, i32 0, i32 15), align 8
  %20 = load i64, ptr getelementptr inbounds (%struct._zend_php_scanner_globals, ptr @language_scanner_globals, i32 0, i32 16), align 8
  %21 = call i64 %18(ptr noundef %6, ptr noundef %5, ptr noundef %19, i64 noundef %20)
  %22 = icmp eq i64 -1, %21
  br i1 %22, label %23, label %26

23:                                               ; preds = %17
  %24 = load ptr, ptr getelementptr inbounds (%struct._zend_php_scanner_globals, ptr @language_scanner_globals, i32 0, i32 21), align 8
  %25 = call ptr @zend_multibyte_get_encoding_name(ptr noundef %24)
  call void (i32, ptr, ...) @zend_error_noreturn(i32 noundef 64, ptr noundef @.str.2, ptr noundef %25) #14
  unreachable

26:                                               ; preds = %17
  %27 = load ptr, ptr getelementptr inbounds (%struct._zend_php_scanner_globals, ptr @language_scanner_globals, i32 0, i32 17), align 8
  %28 = icmp ne ptr %27, null
  br i1 %28, label %29, label %31

29:                                               ; preds = %26
  %30 = load ptr, ptr getelementptr inbounds (%struct._zend_php_scanner_globals, ptr @language_scanner_globals, i32 0, i32 17), align 8
  call void @_efree(ptr noundef %30)
  br label %31

31:                                               ; preds = %29, %26
  %32 = load ptr, ptr %6, align 8
  store ptr %32, ptr getelementptr inbounds (%struct._zend_php_scanner_globals, ptr @language_scanner_globals, i32 0, i32 17), align 8
  %33 = load i64, ptr %5, align 8
  store i64 %33, ptr getelementptr inbounds (%struct._zend_php_scanner_globals, ptr @language_scanner_globals, i32 0, i32 18), align 8
  br label %34

34:                                               ; preds = %31, %14
  %35 = load ptr, ptr %6, align 8
  %36 = load ptr, ptr getelementptr inbounds (%struct._zend_php_scanner_globals, ptr @language_scanner_globals, i32 0, i32 5), align 8
  %37 = load ptr, ptr getelementptr inbounds (%struct._zend_php_scanner_globals, ptr @language_scanner_globals, i32 0, i32 3), align 8
  %38 = ptrtoint ptr %36 to i64
  %39 = ptrtoint ptr %37 to i64
  %40 = sub i64 %38, %39
  %41 = getelementptr inbounds i8, ptr %35, i64 %40
  store ptr %41, ptr getelementptr inbounds (%struct._zend_php_scanner_globals, ptr @language_scanner_globals, i32 0, i32 5), align 8
  %42 = load ptr, ptr %6, align 8
  %43 = load ptr, ptr getelementptr inbounds (%struct._zend_php_scanner_globals, ptr @language_scanner_globals, i32 0, i32 6), align 8
  %44 = load ptr, ptr getelementptr inbounds (%struct._zend_php_scanner_globals, ptr @language_scanner_globals, i32 0, i32 3), align 8
  %45 = ptrtoint ptr %43 to i64
  %46 = ptrtoint ptr %44 to i64
  %47 = sub i64 %45, %46
  %48 = getelementptr inbounds i8, ptr %42, i64 %47
  store ptr %48, ptr getelementptr inbounds (%struct._zend_php_scanner_globals, ptr @language_scanner_globals, i32 0, i32 6), align 8
  %49 = load ptr, ptr %6, align 8
  %50 = load ptr, ptr getelementptr inbounds (%struct._zend_php_scanner_globals, ptr @language_scanner_globals, i32 0, i32 4), align 8
  %51 = load ptr, ptr getelementptr inbounds (%struct._zend_php_scanner_globals, ptr @language_scanner_globals, i32 0, i32 3), align 8
  %52 = ptrtoint ptr %50 to i64
  %53 = ptrtoint ptr %51 to i64
  %54 = sub i64 %52, %53
  %55 = getelementptr inbounds i8, ptr %49, i64 %54
  store ptr %55, ptr getelementptr inbounds (%struct._zend_php_scanner_globals, ptr @language_scanner_globals, i32 0, i32 4), align 8
  %56 = load ptr, ptr %6, align 8
  %57 = load i64, ptr %5, align 8
  %58 = getelementptr inbounds i8, ptr %56, i64 %57
  store ptr %58, ptr getelementptr inbounds (%struct._zend_php_scanner_globals, ptr @language_scanner_globals, i32 0, i32 7), align 8
  %59 = load ptr, ptr %6, align 8
  store ptr %59, ptr getelementptr inbounds (%struct._zend_php_scanner_globals, ptr @language_scanner_globals, i32 0, i32 3), align 8
  ret void
}