; Function Attrs: nounwind uwtable
define void @zend_multibyte_yyinput_again(ptr nocapture noundef readnone %0, ptr nocapture noundef readnone %1) local_unnamed_addr #0 {
  %3 = alloca i64, align 8
  %4 = alloca ptr, align 8
  %5 = load ptr, ptr getelementptr inbounds (%struct._zend_php_scanner_globals, ptr @language_scanner_globals, i64 0, i32 19), align 8
  %.not = icmp eq ptr %5, null
  br i1 %.not, label %6, label %12

6:                                                ; preds = %2
  %7 = load ptr, ptr getelementptr inbounds (%struct._zend_php_scanner_globals, ptr @language_scanner_globals, i64 0, i32 17), align 8
  %.not3 = icmp eq ptr %7, null
  br i1 %.not3, label %9, label %8

8:                                                ; preds = %6
  tail call void @_efree(ptr noundef nonnull %7) #16
  store ptr null, ptr getelementptr inbounds (%struct._zend_php_scanner_globals, ptr @language_scanner_globals, i64 0, i32 17), align 8
  br label %9

9:                                                ; preds = %8, %6
  store i64 0, ptr getelementptr inbounds (%struct._zend_php_scanner_globals, ptr @language_scanner_globals, i64 0, i32 18), align 8
  %10 = load i64, ptr getelementptr inbounds (%struct._zend_php_scanner_globals, ptr @language_scanner_globals, i64 0, i32 16), align 8
  %11 = load ptr, ptr getelementptr inbounds (%struct._zend_php_scanner_globals, ptr @language_scanner_globals, i64 0, i32 15), align 8
  br label %26

12:                                               ; preds = %2
  %13 = load ptr, ptr getelementptr inbounds (%struct._zend_php_scanner_globals, ptr @language_scanner_globals, i64 0, i32 15), align 8
  %14 = load i64, ptr getelementptr inbounds (%struct._zend_php_scanner_globals, ptr @language_scanner_globals, i64 0, i32 16), align 8
  %15 = call i64 %5(ptr noundef nonnull %4, ptr noundef nonnull %3, ptr noundef %13, i64 noundef %14) #16
  %16 = icmp eq i64 %15, -1
  br i1 %16, label %17, label %20

17:                                               ; preds = %12
  %18 = load ptr, ptr getelementptr inbounds (%struct._zend_php_scanner_globals, ptr @language_scanner_globals, i64 0, i32 21), align 8
  %19 = call ptr @zend_multibyte_get_encoding_name(ptr noundef %18) #16
  call void (i32, ptr, ...) @zend_error_noreturn(i32 noundef 64, ptr noundef nonnull @.str.2, ptr noundef %19) #19
  unreachable

20:                                               ; preds = %12
  %21 = load ptr, ptr getelementptr inbounds (%struct._zend_php_scanner_globals, ptr @language_scanner_globals, i64 0, i32 17), align 8
  %.not4 = icmp eq ptr %21, null
  br i1 %.not4, label %23, label %22

22:                                               ; preds = %20
  call void @_efree(ptr noundef nonnull %21) #16
  br label %23

23:                                               ; preds = %22, %20
  %24 = load ptr, ptr %4, align 8
  store ptr %24, ptr getelementptr inbounds (%struct._zend_php_scanner_globals, ptr @language_scanner_globals, i64 0, i32 17), align 8
  %25 = load i64, ptr %3, align 8
  store i64 %25, ptr getelementptr inbounds (%struct._zend_php_scanner_globals, ptr @language_scanner_globals, i64 0, i32 18), align 8
  br label %26

26:                                               ; preds = %23, %9
  %27 = phi i64 [ %25, %23 ], [ %10, %9 ]
  %28 = phi ptr [ %24, %23 ], [ %11, %9 ]
  %29 = load ptr, ptr getelementptr inbounds (%struct._zend_php_scanner_globals, ptr @language_scanner_globals, i64 0, i32 5), align 8
  %30 = load ptr, ptr getelementptr inbounds (%struct._zend_php_scanner_globals, ptr @language_scanner_globals, i64 0, i32 3), align 8
  %31 = ptrtoint ptr %29 to i64
  %32 = ptrtoint ptr %30 to i64
  %33 = sub i64 %31, %32
  %34 = getelementptr inbounds i8, ptr %28, i64 %33
  store ptr %34, ptr getelementptr inbounds (%struct._zend_php_scanner_globals, ptr @language_scanner_globals, i64 0, i32 5), align 8
  %35 = load ptr, ptr getelementptr inbounds (%struct._zend_php_scanner_globals, ptr @language_scanner_globals, i64 0, i32 6), align 8
  %36 = ptrtoint ptr %35 to i64
  %37 = sub i64 %36, %32
  %38 = getelementptr inbounds i8, ptr %28, i64 %37
  store ptr %38, ptr getelementptr inbounds (%struct._zend_php_scanner_globals, ptr @language_scanner_globals, i64 0, i32 6), align 8
  %39 = load ptr, ptr getelementptr inbounds (%struct._zend_php_scanner_globals, ptr @language_scanner_globals, i64 0, i32 4), align 8
  %40 = ptrtoint ptr %39 to i64
  %41 = sub i64 %40, %32
  %42 = getelementptr inbounds i8, ptr %28, i64 %41
  store ptr %42, ptr getelementptr inbounds (%struct._zend_php_scanner_globals, ptr @language_scanner_globals, i64 0, i32 4), align 8
  %43 = getelementptr inbounds i8, ptr %28, i64 %27
  store ptr %43, ptr getelementptr inbounds (%struct._zend_php_scanner_globals, ptr @language_scanner_globals, i64 0, i32 7), align 8
  store ptr %28, ptr getelementptr inbounds (%struct._zend_php_scanner_globals, ptr @language_scanner_globals, i64 0, i32 3), align 8
  ret void
}